; Function Attrs: mustprogress uwtable
define dso_local void @_ZN5ImGui20TableOpenContextMenuEi(i32 noundef %0) local_unnamed_addr #0 {
  %2 = load ptr, ptr @GImGui, align 8, !tbaa !4
  %3 = getelementptr inbounds nuw i8, ptr %2, i64 8536
  %4 = load ptr, ptr %3, align 8, !tbaa !259
  %5 = icmp eq i32 %0, -1
  br i1 %5, label %6, label %9

6:                                                ; preds = %1
  %7 = getelementptr inbounds nuw i8, ptr %4, i64 116
  %8 = load i32, ptr %7, align 4, !tbaa !242
  br label %9

9:                                                ; preds = %6, %1
  %.0 = phi i32 [ %0, %1 ], [ %8, %6 ]
  %10 = getelementptr inbounds nuw i8, ptr %4, i64 4
  %11 = load i32, ptr %10, align 4, !tbaa !203
  %12 = and i32 %11, 7
  %.not15 = icmp eq i32 %12, 0
  br i1 %.not15, label %26, label %13

13:                                               ; preds = %9
  %14 = getelementptr inbounds nuw i8, ptr %4, i64 108
  %15 = load i32, ptr %14, align 4, !tbaa !207
  %16 = icmp eq i32 %.0, %15
  %17 = getelementptr inbounds nuw i8, ptr %4, i64 571
  store i8 1, ptr %17, align 1, !tbaa !422
  %18 = trunc i32 %.0 to i16
  %19 = select i1 %16, i16 -1, i16 %18
  %20 = getelementptr inbounds nuw i8, ptr %4, i64 548
  store i16 %19, ptr %20, align 4, !tbaa !290
  %21 = getelementptr inbounds nuw i8, ptr %4, i64 120
  %22 = load i16, ptr %21, align 8, !tbaa !202
  %23 = getelementptr inbounds nuw i8, ptr %4, i64 122
  store i16 %22, ptr %23, align 2, !tbaa !289
  %24 = load i32, ptr %4, align 8, !tbaa !204
  %25 = tail call noundef i32 @_Z9ImHashStrPKcmj(ptr noundef nonnull @.str.9, i64 noundef 0, i32 noundef %24)
  tail call void @_ZN5ImGui11OpenPopupExEji(i32 noundef %25, i32 noundef 0)
  br label %26

26:                                               ; preds = %13, %9
  ret void
}